#include <math.h>
#include <stdio.h>
#include <stdlib.h>
#include <string.h>

void main()
{	
	int i,j,k,c;
	k = 0;
	c = 1;
	signed int b;
	signed int a[100000];
    scanf("%d",&i);
	for(j=0;j<i;j++)
    scanf("%d",&a[j]);
	scanf("%d",&b);
    for(j=0;j<i;j++)
	{
		if (a[j]!=b)
			k++;
			//printf("%d ",a[j]);
	}
	//printf("%d ",k);
	for(j=0;j<i;j++)
	{
		if (a[j]!=b)
		{
			if (c<k)
			{
				printf("%d ",a[j]);
				c++;
			}
			else
				printf("%d",a[j]);
		}
	}
}